target datalayout = "e-m:e-p270:32:32-p271:32:32-p272:64:64-i64:64-i128:128-f80:128-n8:16:32:64-S128"
target triple = "x86_64-pc-linux-gnu"

; Function Attrs: nounwind uwtable
define dso_local i32 @unicode_to_utf8(ptr noundef %0, i32 noundef %1) #0 {
  %3 = alloca i32, align 4
  %4 = alloca ptr, align 8
  %5 = alloca i32, align 4
  %6 = alloca ptr, align 8
  store ptr %0, ptr %4, align 8
  store i32 %1, ptr %5, align 4
  %7 = load ptr, ptr %4, align 8
  store ptr %7, ptr %6, align 8
  %8 = load i32, ptr %5, align 4
  %9 = icmp ult i32 %8, 128
  br i1 %9, label %10, label %15

10:                                               ; preds = %2
  %11 = load i32, ptr %5, align 4
  %12 = trunc i32 %11 to i8
  %13 = load ptr, ptr %6, align 8
  %14 = getelementptr i8, ptr %13, i32 1
  store ptr %14, ptr %6, align 8
  store i8 %12, ptr %13, align 1
  br label %105

15:                                               ; preds = %2
  %16 = load i32, ptr %5, align 4
  %17 = icmp ult i32 %16, 2048
  br i1 %17, label %18, label %25

18:                                               ; preds = %15
  %19 = load i32, ptr %5, align 4
  %20 = lshr i32 %19, 6
  %21 = or i32 %20, 192
  %22 = trunc i32 %21 to i8
  %23 = load ptr, ptr %6, align 8
  %24 = getelementptr i8, ptr %23, i32 1
  store ptr %24, ptr %6, align 8
  store i8 %22, ptr %23, align 1
  br label %98

25:                                               ; preds = %15
  %26 = load i32, ptr %5, align 4
  %27 = icmp ult i32 %26, 65536
  br i1 %27, label %28, label %35

28:                                               ; preds = %25
  %29 = load i32, ptr %5, align 4
  %30 = lshr i32 %29, 12
  %31 = or i32 %30, 224
  %32 = trunc i32 %31 to i8
  %33 = load ptr, ptr %6, align 8
  %34 = getelementptr i8, ptr %33, i32 1
  store ptr %34, ptr %6, align 8
  store i8 %32, ptr %33, align 1
  br label %90

35:                                               ; preds = %25
  %36 = load i32, ptr %5, align 4
  %37 = icmp ult i32 %36, 2097152
  br i1 %37, label %38, label %45

38:                                               ; preds = %35
  %39 = load i32, ptr %5, align 4
  %40 = lshr i32 %39, 18
  %41 = or i32 %40, 240
  %42 = trunc i32 %41 to i8
  %43 = load ptr, ptr %6, align 8
  %44 = getelementptr i8, ptr %43, i32 1
  store ptr %44, ptr %6, align 8
  store i8 %42, ptr %43, align 1
  br label %82

45:                                               ; preds = %35
  %46 = load i32, ptr %5, align 4
  %47 = icmp ult i32 %46, 67108864
  br i1 %47, label %48, label %55

48:                                               ; preds = %45
  %49 = load i32, ptr %5, align 4
  %50 = lshr i32 %49, 24
  %51 = or i32 %50, 248
  %52 = trunc i32 %51 to i8
  %53 = load ptr, ptr %6, align 8
  %54 = getelementptr i8, ptr %53, i32 1
  store ptr %54, ptr %6, align 8
  store i8 %52, ptr %53, align 1
  br label %74

55:                                               ; preds = %45
  %56 = load i32, ptr %5, align 4
  %57 = icmp ult i32 %56, -2147483648
  br i1 %57, label %58, label %72

58:                                               ; preds = %55
  %59 = load i32, ptr %5, align 4
  %60 = lshr i32 %59, 30
  %61 = or i32 %60, 252
  %62 = trunc i32 %61 to i8
  %63 = load ptr, ptr %6, align 8
  %64 = getelementptr i8, ptr %63, i32 1
  store ptr %64, ptr %6, align 8
  store i8 %62, ptr %63, align 1
  %65 = load i32, ptr %5, align 4
  %66 = lshr i32 %65, 24
  %67 = and i32 %66, 63
  %68 = or i32 %67, 128
  %69 = trunc i32 %68 to i8
  %70 = load ptr, ptr %6, align 8
  %71 = getelementptr i8, ptr %70, i32 1
  store ptr %71, ptr %6, align 8
  store i8 %69, ptr %70, align 1
  br label %73

72:                                               ; preds = %55
  store i32 0, ptr %3, align 4
  br label %112

73:                                               ; preds = %58
  br label %74

74:                                               ; preds = %73, %48
  %75 = load i32, ptr %5, align 4
  %76 = lshr i32 %75, 18
  %77 = and i32 %76, 63
  %78 = or i32 %77, 128
  %79 = trunc i32 %78 to i8
  %80 = load ptr, ptr %6, align 8
  %81 = getelementptr i8, ptr %80, i32 1
  store ptr %81, ptr %6, align 8
  store i8 %79, ptr %80, align 1
  br label %82

82:                                               ; preds = %74, %38
  %83 = load i32, ptr %5, align 4
  %84 = lshr i32 %83, 12
  %85 = and i32 %84, 63
  %86 = or i32 %85, 128
  %87 = trunc i32 %86 to i8
  %88 = load ptr, ptr %6, align 8
  %89 = getelementptr i8, ptr %88, i32 1
  store ptr %89, ptr %6, align 8
  store i8 %87, ptr %88, align 1
  br label %90

90:                                               ; preds = %82, %28
  %91 = load i32, ptr %5, align 4
  %92 = lshr i32 %91, 6
  %93 = and i32 %92, 63
  %94 = or i32 %93, 128
  %95 = trunc i32 %94 to i8
  %96 = load ptr, ptr %6, align 8
  %97 = getelementptr i8, ptr %96, i32 1
  store ptr %97, ptr %6, align 8
  store i8 %95, ptr %96, align 1
  br label %98

98:                                               ; preds = %90, %18
  %99 = load i32, ptr %5, align 4
  %100 = and i32 %99, 63
  %101 = or i32 %100, 128
  %102 = trunc i32 %101 to i8
  %103 = load ptr, ptr %6, align 8
  %104 = getelementptr i8, ptr %103, i32 1
  store ptr %104, ptr %6, align 8
  store i8 %102, ptr %103, align 1
  br label %105

105:                                              ; preds = %98, %10
  %106 = load ptr, ptr %6, align 8
  %107 = load ptr, ptr %4, align 8
  %108 = ptrtoint ptr %106 to i64
  %109 = ptrtoint ptr %107 to i64
  %110 = sub i64 %108, %109
  %111 = trunc i64 %110 to i32
  store i32 %111, ptr %3, align 4
  br label %112

112:                                              ; preds = %105, %72
  %113 = load i32, ptr %3, align 4
  ret i32 %113
}