; Function Attrs: mustprogress nofree norecurse nosync nounwind willreturn memory(write, inaccessiblemem: none) uwtable
define dso_local i32 @unicode_to_utf8(ptr noundef %0, i32 noundef %1) local_unnamed_addr #12 {
  %3 = icmp ult i32 %1, 128
  br i1 %3, label %4, label %7

4:                                                ; preds = %2
  %5 = trunc i32 %1 to i8
  %6 = getelementptr i8, ptr %0, i64 1
  store i8 %5, ptr %0, align 1
  br label %66

7:                                                ; preds = %2
  %8 = icmp ult i32 %1, 2048
  br i1 %8, label %9, label %13

9:                                                ; preds = %7
  %10 = lshr i32 %1, 6
  %11 = trunc i32 %10 to i8
  %12 = or disjoint i8 %11, -64
  store i8 %12, ptr %0, align 1
  br label %61

13:                                               ; preds = %7
  %14 = icmp ult i32 %1, 65536
  br i1 %14, label %15, label %20

15:                                               ; preds = %13
  %16 = lshr i32 %1, 12
  %17 = trunc i32 %16 to i8
  %18 = or disjoint i8 %17, -32
  %19 = getelementptr i8, ptr %0, i64 1
  store i8 %18, ptr %0, align 1
  br label %56

20:                                               ; preds = %13
  %21 = icmp ult i32 %1, 2097152
  br i1 %21, label %22, label %26

22:                                               ; preds = %20
  %23 = lshr i32 %1, 18
  %24 = trunc i32 %23 to i8
  %25 = or disjoint i8 %24, -16
  store i8 %25, ptr %0, align 1
  br label %50

26:                                               ; preds = %20
  %27 = icmp ult i32 %1, 67108864
  br i1 %27, label %28, label %33

28:                                               ; preds = %26
  %29 = lshr i32 %1, 24
  %30 = trunc i32 %29 to i8
  %31 = or disjoint i8 %30, -8
  %32 = getelementptr i8, ptr %0, i64 1
  store i8 %31, ptr %0, align 1
  br label %45

33:                                               ; preds = %26
  %34 = icmp sgt i32 %1, -1
  br i1 %34, label %35, label %71

35:                                               ; preds = %33
  %36 = lshr i32 %1, 30
  %37 = trunc i32 %36 to i8
  %38 = or disjoint i8 %37, -4
  %39 = getelementptr i8, ptr %0, i64 1
  store i8 %38, ptr %0, align 1
  %40 = lshr i32 %1, 24
  %41 = trunc i32 %40 to i8
  %42 = and i8 %41, 63
  %43 = or disjoint i8 %42, -128
  %44 = getelementptr i8, ptr %0, i64 2
  store i8 %43, ptr %39, align 1
  br label %45

45:                                               ; preds = %35, %28
  %.0 = phi ptr [ %32, %28 ], [ %44, %35 ]
  %46 = lshr i32 %1, 18
  %47 = trunc i32 %46 to i8
  %48 = and i8 %47, 63
  %49 = or disjoint i8 %48, -128
  store i8 %49, ptr %.0, align 1
  br label %50

50:                                               ; preds = %45, %22
  %.pn = phi ptr [ %0, %22 ], [ %.0, %45 ]
  %.1 = getelementptr i8, ptr %.pn, i64 1
  %51 = lshr i32 %1, 12
  %52 = trunc i32 %51 to i8
  %53 = and i8 %52, 63
  %54 = or disjoint i8 %53, -128
  %55 = getelementptr i8, ptr %.pn, i64 2
  store i8 %54, ptr %.1, align 1
  br label %56

56:                                               ; preds = %50, %15
  %.2 = phi ptr [ %19, %15 ], [ %55, %50 ]
  %57 = lshr i32 %1, 6
  %58 = trunc i32 %57 to i8
  %59 = and i8 %58, 63
  %60 = or disjoint i8 %59, -128
  store i8 %60, ptr %.2, align 1
  br label %61

61:                                               ; preds = %56, %9
  %.pn34 = phi ptr [ %0, %9 ], [ %.2, %56 ]
  %.3 = getelementptr i8, ptr %.pn34, i64 1
  %62 = trunc i32 %1 to i8
  %63 = and i8 %62, 63
  %64 = or disjoint i8 %63, -128
  %65 = getelementptr i8, ptr %.pn34, i64 2
  store i8 %64, ptr %.3, align 1
  br label %66

66:                                               ; preds = %61, %4
  %.4 = phi ptr [ %6, %4 ], [ %65, %61 ]
  %67 = ptrtoint ptr %.4 to i64
  %68 = ptrtoint ptr %0 to i64
  %69 = sub i64 %67, %68
  %70 = trunc i64 %69 to i32
  br label %71

71:                                               ; preds = %33, %66
  %.031 = phi i32 [ %70, %66 ], [ 0, %33 ]
  ret i32 %.031
}